target datalayout = "e-m:e-p270:32:32-p271:32:32-p272:64:64-i64:64-i128:128-f80:128-n8:16:32:64-S128"
target triple = "x86_64-pc-linux-gnu"

%struct.SDL_DriverXboxOne_Context = type { ptr, i16, i16, i32, i64, i8, i64, i8, i8, i8, i8, i8, i8, i8, i8, i8, i8, i8, i32, i64, i8, [64 x i8], ptr, i32 }
%struct.SDL_HIDAPI_Device = type { ptr, ptr, ptr, ptr, i16, i16, i16, ptr, %struct.SDL_GUID, i32, i32, i32, i32, i16, i16, i8, i32, i32, i32, ptr, ptr, ptr, ptr, %struct.SDL_AtomicInt, i32, ptr, i8, i8, i8, ptr, i32, ptr, ptr }
%struct.SDL_GUID = type { [16 x i8] }
%struct.SDL_AtomicInt = type { i32 }

@.str.11 = private unnamed_addr constant [32 x i8] c"That operation is not supported\00", align 1
@__const.HIDAPI_DriverXboxOne_SetJoystickLED.led_packet = private unnamed_addr constant [9 x i8] c"\0E\00\00\05\00\00\00\00\00", align 1
@.str.12 = private unnamed_addr constant [25 x i8] c"Couldn't send LED packet\00", align 1

; Function Attrs: nounwind uwtable
define internal zeroext i1 @HIDAPI_DriverXboxOne_SetJoystickLED(ptr noundef %0, ptr noundef %1, i8 noundef zeroext %2, i8 noundef zeroext %3, i8 noundef zeroext %4) #0 {
  %6 = alloca i1, align 1
  %7 = alloca ptr, align 8
  %8 = alloca ptr, align 8
  %9 = alloca i8, align 1
  %10 = alloca i8, align 1
  %11 = alloca i8, align 1
  %12 = alloca ptr, align 8
  %13 = alloca [9 x i8], align 1
  %14 = alloca i32, align 4
  store ptr %0, ptr %7, align 8
  store ptr %1, ptr %8, align 8
  store i8 %2, ptr %9, align 1
  store i8 %3, ptr %10, align 1
  store i8 %4, ptr %11, align 1
  call void @llvm.lifetime.start.p0(i64 8, ptr %12) #6
  %15 = load ptr, ptr %7, align 8
  %16 = getelementptr inbounds nuw %struct.SDL_HIDAPI_Device, ptr %15, i32 0, i32 20
  %17 = load ptr, ptr %16, align 8
  store ptr %17, ptr %12, align 8
  %18 = load ptr, ptr %12, align 8
  %19 = getelementptr inbounds nuw %struct.SDL_DriverXboxOne_Context, ptr %18, i32 0, i32 8
  %20 = load i8, ptr %19, align 1, !range !3, !noundef !4
  %21 = trunc i8 %20 to i1
  br i1 %21, label %22, label %39

22:                                               ; preds = %5
  call void @llvm.lifetime.start.p0(i64 9, ptr %13) #6
  call void @llvm.memcpy.p0.p0.i64(ptr align 1 %13, ptr align 1 @__const.HIDAPI_DriverXboxOne_SetJoystickLED.led_packet, i64 9, i1 false)
  %23 = getelementptr inbounds [9 x i8], ptr %13, i64 0, i64 5
  store i8 0, ptr %23, align 1
  %24 = load i8, ptr %9, align 1
  %25 = getelementptr inbounds [9 x i8], ptr %13, i64 0, i64 6
  store i8 %24, ptr %25, align 1
  %26 = load i8, ptr %10, align 1
  %27 = getelementptr inbounds [9 x i8], ptr %13, i64 0, i64 7
  store i8 %26, ptr %27, align 1
  %28 = load i8, ptr %11, align 1
  %29 = getelementptr inbounds [9 x i8], ptr %13, i64 0, i64 8
  store i8 %28, ptr %29, align 1
  %30 = load ptr, ptr %7, align 8
  %31 = getelementptr inbounds [9 x i8], ptr %13, i64 0, i64 0
  %32 = call i32 @SDL_HIDAPI_SendRumble(ptr noundef %30, ptr noundef %31, i32 noundef 9)
  %33 = sext i32 %32 to i64
  %34 = icmp ne i64 %33, 9
  br i1 %34, label %35, label %37

35:                                               ; preds = %22
  %36 = call zeroext i1 (ptr, ...) @SDL_SetError_REAL(ptr noundef @.str.12)
  store i1 %36, ptr %6, align 1
  store i32 1, ptr %14, align 4
  br label %38

37:                                               ; preds = %22
  store i1 true, ptr %6, align 1
  store i32 1, ptr %14, align 4
  br label %38

38:                                               ; preds = %37, %35
  call void @llvm.lifetime.end.p0(i64 9, ptr %13) #6
  br label %41

39:                                               ; preds = %5
  %40 = call zeroext i1 (ptr, ...) @SDL_SetError_REAL(ptr noundef @.str.11)
  store i1 %40, ptr %6, align 1
  store i32 1, ptr %14, align 4
  br label %41

41:                                               ; preds = %39, %38
  call void @llvm.lifetime.end.p0(i64 8, ptr %12) #6
  %42 = load i1, ptr %6, align 1
  ret i1 %42
}