; Function Attrs: nounwind uwtable
define internal zeroext i1 @HIDAPI_DriverXboxOne_SetJoystickLED(ptr noundef %0, ptr readnone captures(none) %1, i8 noundef zeroext %2, i8 noundef zeroext %3, i8 noundef zeroext %4) #0 {
  %6 = alloca [9 x i8], align 1
  %7 = getelementptr inbounds nuw i8, ptr %0, i64 112
  %8 = load ptr, ptr %7, align 8
  %9 = getelementptr inbounds nuw i8, ptr %8, i64 41
  %10 = load i8, ptr %9, align 1, !range !3, !noundef !4
  %11 = trunc nuw i8 %10 to i1
  br i1 %11, label %12, label %21

12:                                               ; preds = %5
  call void @llvm.lifetime.start.p0(i64 9, ptr nonnull %6) #9
  call void @llvm.memcpy.p0.p0.i64(ptr noundef nonnull align 1 dereferenceable(9) %6, ptr noundef nonnull align 1 dereferenceable(9) @__const.HIDAPI_DriverXboxOne_SetJoystickLED.led_packet, i64 5, i1 false)
  %13 = getelementptr inbounds nuw i8, ptr %6, i64 5
  store i8 0, ptr %13, align 1
  %14 = getelementptr inbounds nuw i8, ptr %6, i64 6
  store i8 %2, ptr %14, align 1
  %15 = getelementptr inbounds nuw i8, ptr %6, i64 7
  store i8 %3, ptr %15, align 1
  %16 = getelementptr inbounds nuw i8, ptr %6, i64 8
  store i8 %4, ptr %16, align 1
  %17 = call i32 @SDL_HIDAPI_SendRumble(ptr noundef nonnull %0, ptr noundef nonnull %6, i32 noundef 9) #9
  %.not = icmp eq i32 %17, 9
  br i1 %.not, label %20, label %18

18:                                               ; preds = %12
  %19 = call zeroext i1 (ptr, ...) @SDL_SetError_REAL(ptr noundef nonnull @.str.12) #9
  br label %20

20:                                               ; preds = %12, %18
  %.0 = phi i1 [ %19, %18 ], [ true, %12 ]
  call void @llvm.lifetime.end.p0(i64 9, ptr nonnull %6) #9
  br label %23

21:                                               ; preds = %5
  %22 = tail call zeroext i1 (ptr, ...) @SDL_SetError_REAL(ptr noundef nonnull @.str.11) #9
  br label %23

23:                                               ; preds = %21, %20
  %.1 = phi i1 [ %.0, %20 ], [ %22, %21 ]
  ret i1 %.1
}